target datalayout = "e-m:e-p270:32:32-p271:32:32-p272:64:64-i64:64-i128:128-f80:128-n8:16:32:64-S128"
target triple = "x86_64-pc-linux-gnu"

%struct._typeobject = type { %struct.PyVarObject, ptr, i64, i64, ptr, i64, ptr, ptr, ptr, ptr, ptr, ptr, ptr, ptr, ptr, ptr, ptr, ptr, ptr, i64, ptr, ptr, ptr, ptr, i64, ptr, ptr, ptr, ptr, ptr, ptr, ptr, ptr, ptr, i64, ptr, ptr, ptr, ptr, ptr, ptr, ptr, ptr, ptr, ptr, ptr, i32, ptr, ptr, i8, i16 }
%struct.PyVarObject = type { %struct._object, i64 }
%struct._object = type { %union.anon, ptr }
%union.anon = type { i64 }

@PyLong_Type = external global %struct._typeobject, align 8
@.str.81 = private unnamed_addr constant [28 x i8] c"Py_TYPE(ob) != &PyLong_Type\00", align 1
@.str.82 = private unnamed_addr constant [28 x i8] c"../cpython/Include/object.h\00", align 1
@__PRETTY_FUNCTION__.Py_SIZE = private unnamed_addr constant [31 x i8] c"Py_ssize_t Py_SIZE(PyObject *)\00", align 1
@PyBool_Type = external global %struct._typeobject, align 8
@.str.83 = private unnamed_addr constant [28 x i8] c"Py_TYPE(ob) != &PyBool_Type\00", align 1

; Function Attrs: inlinehint nounwind uwtable
define internal ptr @_Py_TYPE(ptr noundef %0) #4 {
  %2 = alloca ptr, align 8
  store ptr %0, ptr %2, align 8, !tbaa !3
  %3 = load ptr, ptr %2, align 8, !tbaa !3
  %4 = getelementptr inbounds nuw %struct._object, ptr %3, i32 0, i32 1
  %5 = load ptr, ptr %4, align 8, !tbaa !55
  ret ptr %5
}

; Function Attrs: inlinehint nounwind uwtable
define internal i64 @Py_SIZE(ptr noundef %0) #4 {
  %2 = alloca ptr, align 8
  store ptr %0, ptr %2, align 8, !tbaa !3
  %3 = load ptr, ptr %2, align 8, !tbaa !3
  %4 = call ptr @_Py_TYPE(ptr noundef %3)
  %5 = icmp ne ptr %4, @PyLong_Type
  br i1 %5, label %6, label %7

6:                                                ; preds = %1
  br label %9

7:                                                ; preds = %1
  call void @__assert_fail(ptr noundef @.str.81, ptr noundef @.str.82, i32 noundef 282, ptr noundef @__PRETTY_FUNCTION__.Py_SIZE) #11
  unreachable

8:                                                ; No predecessors!
  br label %9

9:                                                ; preds = %8, %6
  %10 = load ptr, ptr %2, align 8, !tbaa !3
  %11 = call ptr @_Py_TYPE(ptr noundef %10)
  %12 = icmp ne ptr %11, @PyBool_Type
  br i1 %12, label %13, label %14

13:                                               ; preds = %9
  br label %16

14:                                               ; preds = %9
  call void @__assert_fail(ptr noundef @.str.83, ptr noundef @.str.82, i32 noundef 283, ptr noundef @__PRETTY_FUNCTION__.Py_SIZE) #11
  unreachable

15:                                               ; No predecessors!
  br label %16

16:                                               ; preds = %15, %13
  %17 = load ptr, ptr %2, align 8, !tbaa !3
  %18 = getelementptr inbounds nuw %struct.PyVarObject, ptr %17, i32 0, i32 1
  %19 = load i64, ptr %18, align 8, !tbaa !56
  ret i64 %19
}

; Function Attrs: nounwind uwtable
define internal i64 @HeapCCollection_length(ptr noundef %0) #0 {
  %2 = alloca ptr, align 8
  store ptr %0, ptr %2, align 8, !tbaa !20
  %3 = load ptr, ptr %2, align 8, !tbaa !20
  %4 = call i64 @Py_SIZE(ptr noundef %3)
  ret i64 %4
}