; Function Attrs: nounwind uwtable
define internal i64 @HeapCCollection_length(ptr noundef readonly captures(none) %0) #0 {
  %2 = getelementptr i8, ptr %0, i64 8
  %.val4.i = load ptr, ptr %2, align 8, !tbaa !9
  %.not.i = icmp eq ptr %.val4.i, @PyLong_Type
  br i1 %.not.i, label %3, label %4

3:                                                ; preds = %1
  tail call void @__assert_fail(ptr noundef nonnull @.str.81, ptr noundef nonnull @.str.82, i32 noundef 282, ptr noundef nonnull @__PRETTY_FUNCTION__.Py_SIZE) #10
  unreachable

4:                                                ; preds = %1
  %.not3.i = icmp eq ptr %.val4.i, @PyBool_Type
  br i1 %.not3.i, label %5, label %Py_SIZE.exit

5:                                                ; preds = %4
  tail call void @__assert_fail(ptr noundef nonnull @.str.83, ptr noundef nonnull @.str.82, i32 noundef 283, ptr noundef nonnull @__PRETTY_FUNCTION__.Py_SIZE) #10
  unreachable

Py_SIZE.exit:                                     ; preds = %4
  %6 = getelementptr inbounds nuw i8, ptr %0, i64 16
  %7 = load i64, ptr %6, align 8, !tbaa !49
  ret i64 %7
}